libqjson.so.0:_Z6yyfreePv
libqjson.so.0:_Z7yyallocm
libqjson.so.0:_Z9yyreallocPvm
libqjson.so.0:_ZN11JSonScanner10LexerInputEPci
libqjson.so.0:_ZN11JSonScanner19allowSpecialNumbersEb
libqjson.so.0:_ZN11JSonScanner5yylexEP8QVariantPN2yy8locationE
libqjson.so.0:_ZN11JSonScanner5yylexEv
libqjson.so.0:_ZN11JSonScannerC1EP9QIODevice
libqjson.so.0:_ZN11JSonScannerC2EP9QIODevice
libqjson.so.0:_ZN11JSonScannerD0Ev
libqjson.so.0:_ZN11JSonScannerD1Ev
libqjson.so.0:_ZN11JSonScannerD2Ev
libqjson.so.0:_ZN11yyFlexLexer10LexerErrorEPKc
libqjson.so.0:_ZN11yyFlexLexer10LexerInputEPci
libqjson.so.0:_ZN11yyFlexLexer11LexerOutputEPKci
libqjson.so.0:_ZN11yyFlexLexer14switch_streamsEPSiPSo
libqjson.so.0:_ZN11yyFlexLexer14yy_init_bufferEP15yy_buffer_statePSi
libqjson.so.0:_ZN11yyFlexLexer15yy_flush_bufferEP15yy_buffer_state
libqjson.so.0:_ZN11yyFlexLexer16yy_create_bufferEPSii
libqjson.so.0:_ZN11yyFlexLexer16yy_delete_bufferEP15yy_buffer_state
libqjson.so.0:_ZN11yyFlexLexer16yy_try_NUL_transEi
libqjson.so.0:_ZN11yyFlexLexer18yy_get_next_bufferEv
libqjson.so.0:_ZN11yyFlexLexer18yypop_buffer_stateEv
libqjson.so.0:_ZN11yyFlexLexer19yy_switch_to_bufferEP15yy_buffer_state
libqjson.so.0:_ZN11yyFlexLexer19yypush_buffer_stateEP15yy_buffer_state
libqjson.so.0:_ZN11yyFlexLexer20yy_load_buffer_stateEv
libqjson.so.0:_ZN11yyFlexLexer21yy_get_previous_stateEv
libqjson.so.0:_ZN11yyFlexLexer21yyensure_buffer_stackEv
libqjson.so.0:_ZN11yyFlexLexer5yylexEv
libqjson.so.0:_ZN11yyFlexLexer6yywrapEv
libqjson.so.0:_ZN11yyFlexLexer7yyinputEv
libqjson.so.0:_ZN11yyFlexLexer7yyunputEiPc
libqjson.so.0:_ZN11yyFlexLexer9yyrestartEPSi
libqjson.so.0:_ZN11yyFlexLexerC1EPSiPSo
libqjson.so.0:_ZN11yyFlexLexerC2EPSiPSo
libqjson.so.0:_ZN11yyFlexLexerD0Ev
libqjson.so.0:_ZN11yyFlexLexerD1Ev
libqjson.so.0:_ZN11yyFlexLexerD2Ev
libqjson.so.0:_ZN2yy11json_parser10yytnamerr_B5cxx11EPKc
libqjson.so.0:_ZN2yy11json_parser12yytranslate_Ei
libqjson.so.0:_ZN2yy11json_parser14yystack_print_Ev
libqjson.so.0:_ZN2yy11json_parser15set_debug_levelEi
libqjson.so.0:_ZN2yy11json_parser15yysyntax_error_B5cxx11Eii
libqjson.so.0:_ZN2yy11json_parser16set_debug_streamERSo
libqjson.so.0:_ZN2yy11json_parser16yy_reduce_print_Ei
libqjson.so.0:_ZN2yy11json_parser16yy_symbol_print_EiPK8QVariantPKNS_8locationE
libqjson.so.0:_ZN2yy11json_parser5errorERKNS_8locationERKNSt7__cxx1112basic_stringIcSt11char_traitsIcESaIcEEE
libqjson.so.0:_ZN2yy11json_parser5parseEv
libqjson.so.0:_ZN2yy11json_parserC1EPN5QJson13ParserPrivateE
libqjson.so.0:_ZN2yy11json_parserC2EPN5QJson13ParserPrivateE
libqjson.so.0:_ZN2yy11json_parserD0Ev
libqjson.so.0:_ZN2yy11json_parserD1Ev
libqjson.so.0:_ZN2yy11json_parserD2Ev
libqjson.so.0:_ZN2yy5yylexEP8QVariantPNS_8locationEPN5QJson13ParserPrivateE
libqjson.so.0:_ZN5QJson10Serializer13setIndentModeENS_10IndentModeE
libqjson.so.0:_ZN5QJson10Serializer17SerializerPrivate11buildIndentEi
libqjson.so.0:_ZN5QJson10Serializer17SerializerPrivate12escapeStringERK7QString
libqjson.so.0:_ZN5QJson10Serializer17SerializerPrivate4joinERK5QListI10QByteArrayERKS3_
libqjson.so.0:_ZN5QJson10Serializer17SerializerPrivate4joinERK5QListI10QByteArrayEc
libqjson.so.0:_ZN5QJson10Serializer17SerializerPrivate9serializeERK8QVariantPbi
libqjson.so.0:_ZN5QJson10Serializer18setDoublePrecisionEi
libqjson.so.0:_ZN5QJson10Serializer19allowSpecialNumbersEb
libqjson.so.0:_ZN5QJson10Serializer9serializeERK8QVariant
libqjson.so.0:_ZN5QJson10Serializer9serializeERK8QVariantP9QIODevicePb
libqjson.so.0:_ZN5QJson10Serializer9serializeERK8QVariantPb
libqjson.so.0:_ZN5QJson10SerializerC1Ev
libqjson.so.0:_ZN5QJson10SerializerC2Ev
libqjson.so.0:_ZN5QJson10SerializerD1Ev
libqjson.so.0:_ZN5QJson10SerializerD2Ev
libqjson.so.0:_ZN5QJson13ParserPrivate5resetEv
libqjson.so.0:_ZN5QJson13ParserPrivate8setErrorERK7QStringi
libqjson.so.0:_ZN5QJson13ParserPrivateC1Ev
libqjson.so.0:_ZN5QJson13ParserPrivateC2Ev
libqjson.so.0:_ZN5QJson13ParserPrivateD1Ev
libqjson.so.0:_ZN5QJson13ParserPrivateD2Ev
libqjson.so.0:_ZN5QJson13QObjectHelper16qobject2qvariantEPK7QObjectRK11QStringList
libqjson.so.0:_ZN5QJson13QObjectHelper16qvariant2qobjectERK4QMapI7QString8QVariantEP7QObject
libqjson.so.0:_ZN5QJson13QObjectHelperC1Ev
libqjson.so.0:_ZN5QJson13QObjectHelperC2Ev
libqjson.so.0:_ZN5QJson13QObjectHelperD1Ev
libqjson.so.0:_ZN5QJson13QObjectHelperD2Ev
libqjson.so.0:_ZN5QJson14ParserRunnable11qt_metacallEN11QMetaObject4CallEiPPv
libqjson.so.0:_ZN5QJson14ParserRunnable11qt_metacastEPKc
libqjson.so.0:_ZN5QJson14ParserRunnable15parsingFinishedERK8QVariantbRK7QString
libqjson.so.0:_ZN5QJson14ParserRunnable3runEv
libqjson.so.0:_ZN5QJson14ParserRunnable7setDataERK10QByteArray
libqjson.so.0:_ZN5QJson14ParserRunnableC1EP7QObject
libqjson.so.0:_ZN5QJson14ParserRunnableC2EP7QObject
libqjson.so.0:_ZN5QJson14ParserRunnableD0Ev
libqjson.so.0:_ZN5QJson14ParserRunnableD1Ev
libqjson.so.0:_ZN5QJson14ParserRunnableD2Ev
libqjson.so.0:_ZN5QJson18SerializerRunnable11qt_metacallEN11QMetaObject4CallEiPPv
libqjson.so.0:_ZN5QJson18SerializerRunnable11qt_metacastEPKc
libqjson.so.0:_ZN5QJson18SerializerRunnable13setJsonObjectERK8QVariant
libqjson.so.0:_ZN5QJson18SerializerRunnable15parsingFinishedERK10QByteArraybRK7QString
libqjson.so.0:_ZN5QJson18SerializerRunnable3runEv
libqjson.so.0:_ZN5QJson18SerializerRunnableC1EP7QObject
libqjson.so.0:_ZN5QJson18SerializerRunnableC2EP7QObject
libqjson.so.0:_ZN5QJson18SerializerRunnableD0Ev
libqjson.so.0:_ZN5QJson18SerializerRunnableD1Ev
libqjson.so.0:_ZN5QJson18SerializerRunnableD2Ev
libqjson.so.0:_ZN5QJson6Parser19allowSpecialNumbersEb
libqjson.so.0:_ZN5QJson6Parser5parseEP9QIODevicePb
libqjson.so.0:_ZN5QJson6Parser5parseERK10QByteArrayPb
libqjson.so.0:_ZN5QJson6ParserC1Ev
libqjson.so.0:_ZN5QJson6ParserC2Ev
libqjson.so.0:_ZN5QJson6ParserD1Ev
libqjson.so.0:_ZN5QJson6ParserD2Ev
libqjson.so.0:_ZNK2yy11json_parser11debug_levelEv
libqjson.so.0:_ZNK2yy11json_parser12debug_streamEv
libqjson.so.0:_ZNK5QJson10Serializer10indentModeEv
libqjson.so.0:_ZNK5QJson10Serializer12errorMessageEv
libqjson.so.0:_ZNK5QJson10Serializer21specialNumbersAllowedEv
libqjson.so.0:_ZNK5QJson14ParserRunnable10metaObjectEv
libqjson.so.0:_ZNK5QJson18SerializerRunnable10metaObjectEv
libqjson.so.0:_ZNK5QJson6Parser11errorStringEv
libqjson.so.0:_ZNK5QJson6Parser21specialNumbersAllowedEv
libqjson.so.0:_ZNK5QJson6Parser9errorLineEv
libqjson.so.0:_ZThn16_N5QJson14ParserRunnable3runEv
libqjson.so.0:_ZThn16_N5QJson14ParserRunnableD0Ev
libqjson.so.0:_ZThn16_N5QJson14ParserRunnableD1Ev
libqjson.so.0:_ZThn16_N5QJson18SerializerRunnable3runEv
libqjson.so.0:_ZThn16_N5QJson18SerializerRunnableD0Ev
libqjson.so.0:_ZThn16_N5QJson18SerializerRunnableD1Ev
